target datalayout = "e-m:e-p270:32:32-p271:32:32-p272:64:64-i64:64-i128:128-f80:128-n8:16:32:64-S128"
target triple = "x86_64-pc-linux-gnu"

%"struct.cv::softdouble" = type { i64 }
%"struct.cv::softfloat" = type { i32 }

@_ZN2cvL17gammaInvThresholdE = internal global %"struct.cv::softdouble" zeroinitializer, align 8
@_ZN2cvL13gammaLowScaleE = internal global %"struct.cv::softdouble" zeroinitializer, align 8
@_ZN2cvL10gammaPowerE = internal global %"struct.cv::softdouble" zeroinitializer, align 8
@_ZN2cvL11gammaXshiftE = internal global %"struct.cv::softdouble" zeroinitializer, align 8

; Function Attrs: mustprogress nounwind uwtable
define linkonce_odr hidden void @_ZN2cv10softdoubleC2Ev(ptr noundef nonnull align 8 dereferenceable(8) %0) unnamed_addr #4 comdat align 2 {
  %2 = alloca ptr, align 8
  store ptr %0, ptr %2, align 8, !tbaa !171
  %3 = load ptr, ptr %2, align 8
  %4 = getelementptr inbounds nuw %"struct.cv::softdouble", ptr %3, i32 0, i32 0
  store i64 0, ptr %4, align 8, !tbaa !7
  ret void
}

; Function Attrs: mustprogress uwtable
define linkonce_odr hidden void @_ZN2cv10softdouble7fromRawEm(ptr dead_on_unwind noalias writable sret(%"struct.cv::softdouble") align 8 %0, i64 noundef %1) #1 comdat align 2 {
  %3 = alloca ptr, align 8
  %4 = alloca i64, align 8
  store ptr %0, ptr %3, align 8
  store i64 %1, ptr %4, align 8, !tbaa !3
  call void @_ZN2cv10softdoubleC2Ev(ptr noundef nonnull align 8 dereferenceable(8) %0)
  %5 = load i64, ptr %4, align 8, !tbaa !3
  %6 = getelementptr inbounds nuw %"struct.cv::softdouble", ptr %0, i32 0, i32 0
  store i64 %5, ptr %6, align 8, !tbaa !7
  ret void
}

; Function Attrs: mustprogress uwtable
define linkonce_odr hidden void @_ZN2cv10softdouble3oneEv(ptr dead_on_unwind noalias writable sret(%"struct.cv::softdouble") align 8 %0) #1 comdat align 2 {
  %2 = alloca ptr, align 8
  store ptr %0, ptr %2, align 8
  call void @_ZN2cv10softdouble7fromRawEm(ptr dead_on_unwind writable sret(%"struct.cv::softdouble") align 8 %0, i64 noundef 4607182418800017408)
  ret void
}

; Function Attrs: inlinehint mustprogress uwtable
define internal void @_ZN2cvL13applyInvGammaENS_9softfloatE(ptr dead_on_unwind noalias writable sret(%"struct.cv::softfloat") align 4 %0, ptr noundef %1) #7 {
  %3 = alloca ptr, align 8
  %4 = alloca ptr, align 8
  %5 = alloca %"struct.cv::softdouble", align 8
  %6 = alloca %"struct.cv::softdouble", align 8
  %7 = alloca %"struct.cv::softdouble", align 8
  %8 = alloca %"struct.cv::softdouble", align 8
  %9 = alloca %"struct.cv::softdouble", align 8
  %10 = alloca %"struct.cv::softdouble", align 8
  %11 = alloca %"struct.cv::softdouble", align 8
  %12 = alloca %"struct.cv::softdouble", align 8
  store ptr %0, ptr %3, align 8
  store ptr %1, ptr %4, align 8, !tbaa !11
  call void @llvm.lifetime.start.p0(i64 8, ptr %5) #12
  call void @_ZNK2cv9softfloatcvNS_10softdoubleEEv(ptr dead_on_unwind writable sret(%"struct.cv::softdouble") align 8 %5, ptr noundef nonnull align 4 dereferenceable(4) %1)
  call void @llvm.lifetime.start.p0(i64 8, ptr %6) #12
  %13 = call noundef zeroext i1 @_ZNK2cv10softdoubleleERKS0_(ptr noundef nonnull align 8 dereferenceable(8) %5, ptr noundef nonnull align 8 dereferenceable(8) @_ZN2cvL17gammaInvThresholdE)
  call void @llvm.lifetime.start.p0(i64 8, ptr %7) #12
  call void @llvm.lifetime.start.p0(i64 8, ptr %8) #12
  call void @llvm.lifetime.start.p0(i64 8, ptr %9) #12
  call void @llvm.lifetime.start.p0(i64 8, ptr %10) #12
  call void @llvm.lifetime.start.p0(i64 8, ptr %11) #12
  call void @llvm.lifetime.start.p0(i64 8, ptr %12) #12
  br i1 %13, label %14, label %15

14:                                               ; preds = %2
  call void @_ZNK2cv10softdoublemlERKS0_(ptr dead_on_unwind writable sret(%"struct.cv::softdouble") align 8 %6, ptr noundef nonnull align 8 dereferenceable(8) %5, ptr noundef nonnull align 8 dereferenceable(8) @_ZN2cvL13gammaLowScaleE)
  br label %16

15:                                               ; preds = %2
  call void @_ZN2cv10softdouble3oneEv(ptr dead_on_unwind writable sret(%"struct.cv::softdouble") align 8 %10)
  call void @_ZNK2cv10softdoubledvERKS0_(ptr dead_on_unwind writable sret(%"struct.cv::softdouble") align 8 %9, ptr noundef nonnull align 8 dereferenceable(8) %10, ptr noundef nonnull align 8 dereferenceable(8) @_ZN2cvL10gammaPowerE)
  call void @_ZN2cv3powERKNS_10softdoubleES2_(ptr dead_on_unwind writable sret(%"struct.cv::softdouble") align 8 %8, ptr noundef nonnull align 8 dereferenceable(8) %5, ptr noundef nonnull align 8 dereferenceable(8) %9)
  call void @_ZN2cv10softdouble3oneEv(ptr dead_on_unwind writable sret(%"struct.cv::softdouble") align 8 %12)
  call void @_ZNK2cv10softdoubleplERKS0_(ptr dead_on_unwind writable sret(%"struct.cv::softdouble") align 8 %11, ptr noundef nonnull align 8 dereferenceable(8) %12, ptr noundef nonnull align 8 dereferenceable(8) @_ZN2cvL11gammaXshiftE)
  call void @_ZNK2cv10softdoublemlERKS0_(ptr dead_on_unwind writable sret(%"struct.cv::softdouble") align 8 %7, ptr noundef nonnull align 8 dereferenceable(8) %8, ptr noundef nonnull align 8 dereferenceable(8) %11)
  call void @_ZNK2cv10softdoublemiERKS0_(ptr dead_on_unwind writable sret(%"struct.cv::softdouble") align 8 %6, ptr noundef nonnull align 8 dereferenceable(8) %7, ptr noundef nonnull align 8 dereferenceable(8) @_ZN2cvL11gammaXshiftE)
  br label %16

16:                                               ; preds = %15, %14
  call void @_ZNK2cv10softdoublecvNS_9softfloatEEv(ptr dead_on_unwind writable sret(%"struct.cv::softfloat") align 4 %0, ptr noundef nonnull align 8 dereferenceable(8) %6)
  call void @llvm.lifetime.end.p0(i64 8, ptr %12) #12
  call void @llvm.lifetime.end.p0(i64 8, ptr %11) #12
  call void @llvm.lifetime.end.p0(i64 8, ptr %10) #12
  call void @llvm.lifetime.end.p0(i64 8, ptr %9) #12
  call void @llvm.lifetime.end.p0(i64 8, ptr %8) #12
  call void @llvm.lifetime.end.p0(i64 8, ptr %7) #12
  call void @llvm.lifetime.end.p0(i64 8, ptr %6) #12
  call void @llvm.lifetime.end.p0(i64 8, ptr %5) #12
  ret void
}